; Function Attrs: nounwind uwtable
define dso_local ptr @ExecInitExprList(ptr noundef readonly captures(address_is_null) %0, ptr noundef %1) local_unnamed_addr #0 {
  %3 = getelementptr inbounds nuw i8, ptr %0, i64 4
  %.not = icmp eq ptr %0, null
  br i1 %.not, label %._crit_edge, label %.lr.ph

.lr.ph:                                           ; preds = %2
  %4 = getelementptr inbounds nuw i8, ptr %0, i64 16
  %5 = load i32, ptr %3, align 4
  %6 = icmp sgt i32 %5, 0
  br i1 %6, label %.lr.ph22, label %._crit_edge

._crit_edge:                                      ; preds = %.lr.ph22, %.lr.ph, %2
  %.0.lcssa = phi ptr [ null, %2 ], [ null, %.lr.ph ], [ %11, %.lr.ph22 ]
  ret ptr %.0.lcssa

.lr.ph22:                                         ; preds = %.lr.ph, %.lr.ph22
  %indvars.iv = phi i64 [ %indvars.iv.next, %.lr.ph22 ], [ 0, %.lr.ph ]
  %.01620 = phi ptr [ %11, %.lr.ph22 ], [ null, %.lr.ph ]
  %7 = load ptr, ptr %4, align 8
  %8 = getelementptr inbounds nuw %union.ListCell, ptr %7, i64 %indvars.iv
  %9 = load ptr, ptr %8, align 8
  %10 = tail call ptr @ExecInitExpr(ptr noundef %9, ptr noundef %1)
  %11 = tail call ptr @lappend(ptr noundef %.01620, ptr noundef %10) #10
  %indvars.iv.next = add nuw nsw i64 %indvars.iv, 1
  %12 = load i32, ptr %3, align 4
  %13 = sext i32 %12 to i64
  %14 = icmp slt i64 %indvars.iv.next, %13
  br i1 %14, label %.lr.ph22, label %._crit_edge
}